target datalayout = "e-m:e-p270:32:32-p271:32:32-p272:64:64-i64:64-i128:128-f80:128-n8:16:32:64-S128"
target triple = "x86_64-pc-linux-gnu"

%struct.fetch_config = type { i32, i32, i32, i32, i32, i32, i32, i32 }
%struct.config_context = type { ptr }

@.str.135 = private unnamed_addr constant [10 x i8] c"fetch.all\00", align 1
@.str.136 = private unnamed_addr constant [12 x i8] c"fetch.prune\00", align 1
@.str.137 = private unnamed_addr constant [16 x i8] c"fetch.prunetags\00", align 1
@.str.138 = private unnamed_addr constant [24 x i8] c"fetch.showforcedupdates\00", align 1
@.str.139 = private unnamed_addr constant [18 x i8] c"submodule.recurse\00", align 1
@.str.140 = private unnamed_addr constant [20 x i8] c"submodule.fetchjobs\00", align 1
@.str.141 = private unnamed_addr constant [24 x i8] c"fetch.recursesubmodules\00", align 1
@.str.142 = private unnamed_addr constant [15 x i8] c"fetch.parallel\00", align 1
@.str.143 = private unnamed_addr constant [34 x i8] c"fetch.parallel cannot be negative\00", align 1
@.str.144 = private unnamed_addr constant [13 x i8] c"fetch.output\00", align 1
@.str.145 = private unnamed_addr constant [5 x i8] c"full\00", align 1
@.str.146 = private unnamed_addr constant [8 x i8] c"compact\00", align 1
@.str.147 = private unnamed_addr constant [29 x i8] c"invalid value for '%s': '%s'\00", align 1

; Function Attrs: inlinehint nounwind uwtable
define internal i32 @const_error() #5 {
  ret i32 -1
}

; Function Attrs: nounwind uwtable
define internal i32 @git_fetch_config(ptr noundef %0, ptr noundef %1, ptr noundef %2, ptr noundef %3) #0 {
  %5 = alloca i32, align 4
  %6 = alloca ptr, align 8
  %7 = alloca ptr, align 8
  %8 = alloca ptr, align 8
  %9 = alloca ptr, align 8
  %10 = alloca ptr, align 8
  %11 = alloca i32, align 4
  %12 = alloca i32, align 4
  store ptr %0, ptr %6, align 8, !tbaa !11
  store ptr %1, ptr %7, align 8, !tbaa !11
  store ptr %2, ptr %8, align 8, !tbaa !109
  store ptr %3, ptr %9, align 8, !tbaa !108
  call void @llvm.lifetime.start.p0(i64 8, ptr %10) #11
  %13 = load ptr, ptr %9, align 8, !tbaa !108
  store ptr %13, ptr %10, align 8, !tbaa !111
  %14 = load ptr, ptr %6, align 8, !tbaa !11
  %15 = call i32 @strcmp(ptr noundef %14, ptr noundef @.str.135) #13
  %16 = icmp ne i32 %15, 0
  br i1 %16, label %23, label %17

17:                                               ; preds = %4
  %18 = load ptr, ptr %6, align 8, !tbaa !11
  %19 = load ptr, ptr %7, align 8, !tbaa !11
  %20 = call i32 @git_config_bool(ptr noundef %18, ptr noundef %19)
  %21 = load ptr, ptr %10, align 8, !tbaa !111
  %22 = getelementptr inbounds nuw %struct.fetch_config, ptr %21, i32 0, i32 1
  store i32 %20, ptr %22, align 4, !tbaa !61
  store i32 0, ptr %5, align 4
  store i32 1, ptr %11, align 4
  br label %156

23:                                               ; preds = %4
  %24 = load ptr, ptr %6, align 8, !tbaa !11
  %25 = call i32 @strcmp(ptr noundef %24, ptr noundef @.str.136) #13
  %26 = icmp ne i32 %25, 0
  br i1 %26, label %33, label %27

27:                                               ; preds = %23
  %28 = load ptr, ptr %6, align 8, !tbaa !11
  %29 = load ptr, ptr %7, align 8, !tbaa !11
  %30 = call i32 @git_config_bool(ptr noundef %28, ptr noundef %29)
  %31 = load ptr, ptr %10, align 8, !tbaa !111
  %32 = getelementptr inbounds nuw %struct.fetch_config, ptr %31, i32 0, i32 2
  store i32 %30, ptr %32, align 4, !tbaa !113
  store i32 0, ptr %5, align 4
  store i32 1, ptr %11, align 4
  br label %156

33:                                               ; preds = %23
  %34 = load ptr, ptr %6, align 8, !tbaa !11
  %35 = call i32 @strcmp(ptr noundef %34, ptr noundef @.str.137) #13
  %36 = icmp ne i32 %35, 0
  br i1 %36, label %43, label %37

37:                                               ; preds = %33
  %38 = load ptr, ptr %6, align 8, !tbaa !11
  %39 = load ptr, ptr %7, align 8, !tbaa !11
  %40 = call i32 @git_config_bool(ptr noundef %38, ptr noundef %39)
  %41 = load ptr, ptr %10, align 8, !tbaa !111
  %42 = getelementptr inbounds nuw %struct.fetch_config, ptr %41, i32 0, i32 3
  store i32 %40, ptr %42, align 4, !tbaa !114
  store i32 0, ptr %5, align 4
  store i32 1, ptr %11, align 4
  br label %156

43:                                               ; preds = %33
  %44 = load ptr, ptr %6, align 8, !tbaa !11
  %45 = call i32 @strcmp(ptr noundef %44, ptr noundef @.str.138) #13
  %46 = icmp ne i32 %45, 0
  br i1 %46, label %53, label %47

47:                                               ; preds = %43
  %48 = load ptr, ptr %6, align 8, !tbaa !11
  %49 = load ptr, ptr %7, align 8, !tbaa !11
  %50 = call i32 @git_config_bool(ptr noundef %48, ptr noundef %49)
  %51 = load ptr, ptr %10, align 8, !tbaa !111
  %52 = getelementptr inbounds nuw %struct.fetch_config, ptr %51, i32 0, i32 4
  store i32 %50, ptr %52, align 4, !tbaa !115
  store i32 0, ptr %5, align 4
  store i32 1, ptr %11, align 4
  br label %156

53:                                               ; preds = %43
  %54 = load ptr, ptr %6, align 8, !tbaa !11
  %55 = call i32 @strcmp(ptr noundef %54, ptr noundef @.str.139) #13
  %56 = icmp ne i32 %55, 0
  br i1 %56, label %66, label %57

57:                                               ; preds = %53
  call void @llvm.lifetime.start.p0(i64 4, ptr %12) #11
  %58 = load ptr, ptr %6, align 8, !tbaa !11
  %59 = load ptr, ptr %7, align 8, !tbaa !11
  %60 = call i32 @git_config_bool(ptr noundef %58, ptr noundef %59)
  %61 = icmp ne i32 %60, 0
  %62 = select i1 %61, i32 2, i32 0
  store i32 %62, ptr %12, align 4, !tbaa !4
  %63 = load i32, ptr %12, align 4, !tbaa !4
  %64 = load ptr, ptr %10, align 8, !tbaa !111
  %65 = getelementptr inbounds nuw %struct.fetch_config, ptr %64, i32 0, i32 5
  store i32 %63, ptr %65, align 4, !tbaa !52
  store i32 0, ptr %5, align 4
  store i32 1, ptr %11, align 4
  call void @llvm.lifetime.end.p0(i64 4, ptr %12) #11
  br label %156

66:                                               ; preds = %53
  %67 = load ptr, ptr %6, align 8, !tbaa !11
  %68 = call i32 @strcmp(ptr noundef %67, ptr noundef @.str.140) #13
  %69 = icmp ne i32 %68, 0
  br i1 %69, label %79, label %70

70:                                               ; preds = %66
  %71 = load ptr, ptr %6, align 8, !tbaa !11
  %72 = load ptr, ptr %7, align 8, !tbaa !11
  %73 = load ptr, ptr %8, align 8, !tbaa !109
  %74 = getelementptr inbounds nuw %struct.config_context, ptr %73, i32 0, i32 0
  %75 = load ptr, ptr %74, align 8, !tbaa !116
  %76 = call i32 @parse_submodule_fetchjobs(ptr noundef %71, ptr noundef %72, ptr noundef %75)
  %77 = load ptr, ptr %10, align 8, !tbaa !111
  %78 = getelementptr inbounds nuw %struct.fetch_config, ptr %77, i32 0, i32 7
  store i32 %76, ptr %78, align 4, !tbaa !54
  store i32 0, ptr %5, align 4
  store i32 1, ptr %11, align 4
  br label %156

79:                                               ; preds = %66
  %80 = load ptr, ptr %6, align 8, !tbaa !11
  %81 = call i32 @strcmp(ptr noundef %80, ptr noundef @.str.141) #13
  %82 = icmp ne i32 %81, 0
  br i1 %82, label %89, label %83

83:                                               ; preds = %79
  %84 = load ptr, ptr %6, align 8, !tbaa !11
  %85 = load ptr, ptr %7, align 8, !tbaa !11
  %86 = call i32 @parse_fetch_recurse_submodules_arg(ptr noundef %84, ptr noundef %85)
  %87 = load ptr, ptr %10, align 8, !tbaa !111
  %88 = getelementptr inbounds nuw %struct.fetch_config, ptr %87, i32 0, i32 5
  store i32 %86, ptr %88, align 4, !tbaa !52
  store i32 0, ptr %5, align 4
  store i32 1, ptr %11, align 4
  br label %156

89:                                               ; preds = %79
  br label %90

90:                                               ; preds = %89
  %91 = load ptr, ptr %6, align 8, !tbaa !11
  %92 = call i32 @strcmp(ptr noundef %91, ptr noundef @.str.142) #13
  %93 = icmp ne i32 %92, 0
  br i1 %93, label %119, label %94

94:                                               ; preds = %90
  %95 = load ptr, ptr %6, align 8, !tbaa !11
  %96 = load ptr, ptr %7, align 8, !tbaa !11
  %97 = load ptr, ptr %8, align 8, !tbaa !109
  %98 = getelementptr inbounds nuw %struct.config_context, ptr %97, i32 0, i32 0
  %99 = load ptr, ptr %98, align 8, !tbaa !116
  %100 = call i32 @git_config_int(ptr noundef %95, ptr noundef %96, ptr noundef %99)
  %101 = load ptr, ptr %10, align 8, !tbaa !111
  %102 = getelementptr inbounds nuw %struct.fetch_config, ptr %101, i32 0, i32 6
  store i32 %100, ptr %102, align 4, !tbaa !88
  %103 = load ptr, ptr %10, align 8, !tbaa !111
  %104 = getelementptr inbounds nuw %struct.fetch_config, ptr %103, i32 0, i32 6
  %105 = load i32, ptr %104, align 4, !tbaa !88
  %106 = icmp slt i32 %105, 0
  br i1 %106, label %107, label %109

107:                                              ; preds = %94
  %108 = call ptr @_(ptr noundef @.str.143)
  call void (ptr, ...) @die(ptr noundef %108) #12
  unreachable

109:                                              ; preds = %94
  %110 = load ptr, ptr %10, align 8, !tbaa !111
  %111 = getelementptr inbounds nuw %struct.fetch_config, ptr %110, i32 0, i32 6
  %112 = load i32, ptr %111, align 4, !tbaa !88
  %113 = icmp ne i32 %112, 0
  br i1 %113, label %118, label %114

114:                                              ; preds = %109
  %115 = call i32 @online_cpus()
  %116 = load ptr, ptr %10, align 8, !tbaa !111
  %117 = getelementptr inbounds nuw %struct.fetch_config, ptr %116, i32 0, i32 6
  store i32 %115, ptr %117, align 4, !tbaa !88
  br label %118

118:                                              ; preds = %114, %109
  store i32 0, ptr %5, align 4
  store i32 1, ptr %11, align 4
  br label %156

119:                                              ; preds = %90
  %120 = load ptr, ptr %6, align 8, !tbaa !11
  %121 = call i32 @strcmp(ptr noundef %120, ptr noundef @.str.144) #13
  %122 = icmp ne i32 %121, 0
  br i1 %122, label %150, label %123

123:                                              ; preds = %119
  %124 = load ptr, ptr %7, align 8, !tbaa !11
  %125 = icmp ne ptr %124, null
  br i1 %125, label %130, label %126

126:                                              ; preds = %123
  %127 = load ptr, ptr %6, align 8, !tbaa !11
  %128 = call i32 @config_error_nonbool(ptr noundef %127)
  %129 = call i32 @const_error()
  store i32 %129, ptr %5, align 4
  store i32 1, ptr %11, align 4
  br label %156

130:                                              ; preds = %123
  %131 = load ptr, ptr %7, align 8, !tbaa !11
  %132 = call i32 @strcasecmp(ptr noundef %131, ptr noundef @.str.145) #13
  %133 = icmp ne i32 %132, 0
  br i1 %133, label %137, label %134

134:                                              ; preds = %130
  %135 = load ptr, ptr %10, align 8, !tbaa !111
  %136 = getelementptr inbounds nuw %struct.fetch_config, ptr %135, i32 0, i32 0
  store i32 0, ptr %136, align 4, !tbaa !57
  br label %148

137:                                              ; preds = %130
  %138 = load ptr, ptr %7, align 8, !tbaa !11
  %139 = call i32 @strcasecmp(ptr noundef %138, ptr noundef @.str.146) #13
  %140 = icmp ne i32 %139, 0
  br i1 %140, label %144, label %141

141:                                              ; preds = %137
  %142 = load ptr, ptr %10, align 8, !tbaa !111
  %143 = getelementptr inbounds nuw %struct.fetch_config, ptr %142, i32 0, i32 0
  store i32 1, ptr %143, align 4, !tbaa !57
  br label %147

144:                                              ; preds = %137
  %145 = call ptr @_(ptr noundef @.str.147)
  %146 = load ptr, ptr %7, align 8, !tbaa !11
  call void (ptr, ...) @die(ptr noundef %145, ptr noundef @.str.144, ptr noundef %146) #12
  unreachable

147:                                              ; preds = %141
  br label %148

148:                                              ; preds = %147, %134
  br label %149

149:                                              ; preds = %148
  br label %150

150:                                              ; preds = %149, %119
  %151 = load ptr, ptr %6, align 8, !tbaa !11
  %152 = load ptr, ptr %7, align 8, !tbaa !11
  %153 = load ptr, ptr %8, align 8, !tbaa !109
  %154 = load ptr, ptr %9, align 8, !tbaa !108
  %155 = call i32 @git_default_config(ptr noundef %151, ptr noundef %152, ptr noundef %153, ptr noundef %154)
  store i32 %155, ptr %5, align 4
  store i32 1, ptr %11, align 4
  br label %156

156:                                              ; preds = %150, %126, %118, %83, %70, %57, %47, %37, %27, %17
  call void @llvm.lifetime.end.p0(i64 8, ptr %10) #11
  %157 = load i32, ptr %5, align 4
  ret i32 %157
}