; Function Attrs: nounwind uwtable
define internal i32 @git_fetch_config(ptr noundef %0, ptr noundef %1, ptr noundef %2, ptr noundef %3) #0 {
  %5 = tail call i32 @strcmp(ptr noundef nonnull dereferenceable(1) %0, ptr noundef nonnull dereferenceable(10) @.str.135) #22
  %.not = icmp eq i32 %5, 0
  br i1 %.not, label %6, label %9

6:                                                ; preds = %4
  %7 = tail call i32 @git_config_bool(ptr noundef nonnull %0, ptr noundef %1) #20
  %8 = getelementptr inbounds nuw i8, ptr %3, i64 4
  store i32 %7, ptr %8, align 4, !tbaa !194
  br label %66

9:                                                ; preds = %4
  %10 = tail call i32 @strcmp(ptr noundef nonnull dereferenceable(1) %0, ptr noundef nonnull dereferenceable(12) @.str.136) #22
  %.not53 = icmp eq i32 %10, 0
  br i1 %.not53, label %11, label %14

11:                                               ; preds = %9
  %12 = tail call i32 @git_config_bool(ptr noundef nonnull %0, ptr noundef %1) #20
  %13 = getelementptr inbounds nuw i8, ptr %3, i64 8
  store i32 %12, ptr %13, align 4, !tbaa !195
  br label %66

14:                                               ; preds = %9
  %15 = tail call i32 @strcmp(ptr noundef nonnull dereferenceable(1) %0, ptr noundef nonnull dereferenceable(16) @.str.137) #22
  %.not54 = icmp eq i32 %15, 0
  br i1 %.not54, label %16, label %19

16:                                               ; preds = %14
  %17 = tail call i32 @git_config_bool(ptr noundef nonnull %0, ptr noundef %1) #20
  %18 = getelementptr inbounds nuw i8, ptr %3, i64 12
  store i32 %17, ptr %18, align 4, !tbaa !97
  br label %66

19:                                               ; preds = %14
  %20 = tail call i32 @strcmp(ptr noundef nonnull dereferenceable(1) %0, ptr noundef nonnull dereferenceable(24) @.str.138) #22
  %.not55 = icmp eq i32 %20, 0
  br i1 %.not55, label %21, label %24

21:                                               ; preds = %19
  %22 = tail call i32 @git_config_bool(ptr noundef nonnull %0, ptr noundef %1) #20
  %23 = getelementptr inbounds nuw i8, ptr %3, i64 16
  store i32 %22, ptr %23, align 4, !tbaa !196
  br label %66

24:                                               ; preds = %19
  %25 = tail call i32 @strcmp(ptr noundef nonnull dereferenceable(1) %0, ptr noundef nonnull dereferenceable(18) @.str.139) #22
  %.not56 = icmp eq i32 %25, 0
  br i1 %.not56, label %26, label %30

26:                                               ; preds = %24
  %27 = tail call i32 @git_config_bool(ptr noundef nonnull %0, ptr noundef %1) #20
  %.not57 = icmp eq i32 %27, 0
  %28 = select i1 %.not57, i32 0, i32 2
  %29 = getelementptr inbounds nuw i8, ptr %3, i64 20
  store i32 %28, ptr %29, align 4, !tbaa !45
  br label %66

30:                                               ; preds = %24
  %31 = tail call i32 @strcmp(ptr noundef nonnull dereferenceable(1) %0, ptr noundef nonnull dereferenceable(20) @.str.140) #22
  %.not58 = icmp eq i32 %31, 0
  br i1 %.not58, label %32, label %36

32:                                               ; preds = %30
  %33 = load ptr, ptr %2, align 8, !tbaa !197
  %34 = tail call i32 @parse_submodule_fetchjobs(ptr noundef nonnull %0, ptr noundef %1, ptr noundef %33) #20
  %35 = getelementptr inbounds nuw i8, ptr %3, i64 28
  store i32 %34, ptr %35, align 4, !tbaa !47
  br label %66

36:                                               ; preds = %30
  %37 = tail call i32 @strcmp(ptr noundef nonnull dereferenceable(1) %0, ptr noundef nonnull dereferenceable(24) @.str.141) #22
  %.not59 = icmp eq i32 %37, 0
  br i1 %.not59, label %38, label %41

38:                                               ; preds = %36
  %39 = tail call i32 @parse_fetch_recurse_submodules_arg(ptr noundef nonnull %0, ptr noundef %1) #20
  %40 = getelementptr inbounds nuw i8, ptr %3, i64 20
  store i32 %39, ptr %40, align 4, !tbaa !45
  br label %66

41:                                               ; preds = %36
  %42 = tail call i32 @strcmp(ptr noundef nonnull dereferenceable(1) %0, ptr noundef nonnull dereferenceable(15) @.str.142) #22
  %.not60 = icmp eq i32 %42, 0
  br i1 %.not60, label %43, label %53

43:                                               ; preds = %41
  %44 = load ptr, ptr %2, align 8, !tbaa !197
  %45 = tail call i32 @git_config_int(ptr noundef nonnull %0, ptr noundef %1, ptr noundef %44) #20
  %46 = getelementptr inbounds nuw i8, ptr %3, i64 24
  store i32 %45, ptr %46, align 4, !tbaa !200
  %47 = icmp slt i32 %45, 0
  br i1 %47, label %48, label %50

48:                                               ; preds = %43
  %49 = tail call fastcc ptr @_(ptr noundef nonnull @.str.143)
  tail call void (ptr, ...) @die(ptr noundef %49) #21
  unreachable

50:                                               ; preds = %43
  %.not61 = icmp eq i32 %45, 0
  br i1 %.not61, label %51, label %66

51:                                               ; preds = %50
  %52 = tail call i32 @online_cpus() #20
  store i32 %52, ptr %46, align 4, !tbaa !200
  br label %66

53:                                               ; preds = %41
  %54 = tail call i32 @strcmp(ptr noundef nonnull dereferenceable(1) %0, ptr noundef nonnull dereferenceable(13) @.str.144) #22
  %.not62 = icmp eq i32 %54, 0
  br i1 %.not62, label %55, label %64

55:                                               ; preds = %53
  %.not63 = icmp eq ptr %1, null
  br i1 %.not63, label %56, label %58

56:                                               ; preds = %55
  %57 = tail call i32 @config_error_nonbool(ptr noundef nonnull %0) #20
  br label %66

58:                                               ; preds = %55
  %59 = tail call i32 @strcasecmp(ptr noundef nonnull %1, ptr noundef nonnull @.str.145) #22
  %.not64 = icmp eq i32 %59, 0
  br i1 %.not64, label %.sink.split, label %60

60:                                               ; preds = %58
  %61 = tail call i32 @strcasecmp(ptr noundef nonnull %1, ptr noundef nonnull @.str.146) #22
  %.not65 = icmp eq i32 %61, 0
  br i1 %.not65, label %.sink.split, label %62

62:                                               ; preds = %60
  %63 = tail call fastcc ptr @_(ptr noundef nonnull @.str.147)
  tail call void (ptr, ...) @die(ptr noundef %63, ptr noundef nonnull @.str.144, ptr noundef nonnull %1) #21
  unreachable

.sink.split:                                      ; preds = %60, %58
  %.sink = phi i32 [ 0, %58 ], [ 1, %60 ]
  store i32 %.sink, ptr %3, align 4, !tbaa !48
  br label %64

64:                                               ; preds = %.sink.split, %53
  %65 = tail call i32 @git_default_config(ptr noundef nonnull %0, ptr noundef %1, ptr noundef %2, ptr noundef %3) #20
  br label %66

66:                                               ; preds = %50, %51, %64, %56, %38, %32, %26, %21, %16, %11, %6
  %.0 = phi i32 [ %65, %64 ], [ -1, %56 ], [ 0, %38 ], [ 0, %32 ], [ 0, %26 ], [ 0, %21 ], [ 0, %16 ], [ 0, %11 ], [ 0, %6 ], [ 0, %51 ], [ 0, %50 ]
  ret i32 %.0
}